target datalayout = "e-m:e-p270:32:32-p271:32:32-p272:64:64-i64:64-i128:128-f80:128-n8:16:32:64-S128"
target triple = "x86_64-pc-linux-gnu"

%class.CrowdToolState = type <{ %struct.SampleToolState, ptr, ptr, ptr, [3 x float], i32, %struct.dtCrowdAgentDebugInfo, ptr, [128 x %"struct.CrowdToolState::AgentTrail"], %class.ValueHistory, %class.ValueHistory, %struct.CrowdToolParams, i8, [7 x i8] }>
%struct.SampleToolState = type { ptr }
%struct.dtCrowdAgentDebugInfo = type { i32, [3 x float], [3 x float], ptr }
%"struct.CrowdToolState::AgentTrail" = type { [192 x float], i32 }
%class.ValueHistory = type { [256 x float], i32 }
%struct.CrowdToolParams = type { i8, i8, i8, i8, i8, i8, i8, i8, i8, i8, i8, i8, i8, i8, i8, i8, i8, i8, float, i8, float }
%struct.dtObstacleAvoidanceParams = type { float, float, float, float, float, float, i8, i8, i8, i8 }
%class.dtCrowd = type { i32, ptr, ptr, ptr, %class.dtPathQueue, [8 x %struct.dtObstacleAvoidanceParams], ptr, ptr, ptr, i32, [3 x float], [16 x %class.dtQueryFilter], float, i32, ptr }
%class.dtPathQueue = type { [8 x %"struct.dtPathQueue::PathQuery"], i32, i32, i32, ptr }
%"struct.dtPathQueue::PathQuery" = type { i32, [3 x float], [3 x float], i32, i32, ptr, i32, i32, i32, ptr }
%class.dtQueryFilter = type { [64 x float], i16, i16 }

; Function Attrs: mustprogress nounwind uwtable
define linkonce_odr dso_local void @_ZN13dtQueryFilter15setExcludeFlagsEt(ptr noundef nonnull align 4 dereferenceable(260) %0, i16 noundef zeroext %1) #1 comdat align 2 {
  %3 = alloca ptr, align 8
  %4 = alloca i16, align 2
  store ptr %0, ptr %3, align 8
  store i16 %1, ptr %4, align 2
  %5 = load ptr, ptr %3, align 8
  %6 = load i16, ptr %4, align 2
  %7 = getelementptr inbounds %class.dtQueryFilter, ptr %5, i32 0, i32 2
  store i16 %6, ptr %7, align 2
  ret void
}

; Function Attrs: mustprogress nounwind uwtable
define linkonce_odr dso_local noundef ptr @_ZN7dtCrowd17getEditableFilterEi(ptr noundef nonnull align 8 dereferenceable(5072) %0, i32 noundef %1) #1 comdat align 2 {
  %3 = alloca ptr, align 8
  %4 = alloca i32, align 4
  store ptr %0, ptr %3, align 8
  store i32 %1, ptr %4, align 4
  %5 = load ptr, ptr %3, align 8
  %6 = load i32, ptr %4, align 4
  %7 = icmp sge i32 %6, 0
  br i1 %7, label %8, label %16

8:                                                ; preds = %2
  %9 = load i32, ptr %4, align 4
  %10 = icmp slt i32 %9, 16
  br i1 %10, label %11, label %16

11:                                               ; preds = %8
  %12 = getelementptr inbounds %class.dtCrowd, ptr %5, i32 0, i32 11
  %13 = load i32, ptr %4, align 4
  %14 = sext i32 %13 to i64
  %15 = getelementptr inbounds [16 x %class.dtQueryFilter], ptr %12, i64 0, i64 %14
  br label %17

16:                                               ; preds = %8, %2
  br label %17

17:                                               ; preds = %16, %11
  %18 = phi ptr [ %15, %11 ], [ null, %16 ]
  ret ptr %18
}

; Function Attrs: mustprogress uwtable
define dso_local void @_ZN14CrowdToolState4initEP6Sample(ptr noundef nonnull align 8 dereferenceable(101001) %0, ptr noundef %1) unnamed_addr #0 align 2 {
  %3 = alloca ptr, align 8
  %4 = alloca ptr, align 8
  %5 = alloca ptr, align 8
  %6 = alloca ptr, align 8
  %7 = alloca %struct.dtObstacleAvoidanceParams, align 4
  store ptr %0, ptr %3, align 8
  store ptr %1, ptr %4, align 8
  %8 = load ptr, ptr %3, align 8
  %9 = getelementptr inbounds %class.CrowdToolState, ptr %8, i32 0, i32 1
  %10 = load ptr, ptr %9, align 8
  %11 = load ptr, ptr %4, align 8
  %12 = icmp ne ptr %10, %11
  br i1 %12, label %13, label %16

13:                                               ; preds = %2
  %14 = load ptr, ptr %4, align 8
  %15 = getelementptr inbounds %class.CrowdToolState, ptr %8, i32 0, i32 1
  store ptr %14, ptr %15, align 8
  br label %16

16:                                               ; preds = %13, %2
  %17 = getelementptr inbounds %class.CrowdToolState, ptr %8, i32 0, i32 1
  %18 = load ptr, ptr %17, align 8
  %19 = load ptr, ptr %18, align 8
  %20 = getelementptr inbounds ptr, ptr %19, i64 15
  %21 = load ptr, ptr %20, align 8
  %22 = call noundef ptr %21(ptr noundef nonnull align 8 dereferenceable(200) %18)
  store ptr %22, ptr %5, align 8
  %23 = getelementptr inbounds %class.CrowdToolState, ptr %8, i32 0, i32 1
  %24 = load ptr, ptr %23, align 8
  %25 = load ptr, ptr %24, align 8
  %26 = getelementptr inbounds ptr, ptr %25, i64 17
  %27 = load ptr, ptr %26, align 8
  %28 = call noundef ptr %27(ptr noundef nonnull align 8 dereferenceable(200) %24)
  store ptr %28, ptr %6, align 8
  %29 = load ptr, ptr %5, align 8
  %30 = icmp ne ptr %29, null
  br i1 %30, label %31, label %82

31:                                               ; preds = %16
  %32 = load ptr, ptr %6, align 8
  %33 = icmp ne ptr %32, null
  br i1 %33, label %34, label %82

34:                                               ; preds = %31
  %35 = getelementptr inbounds %class.CrowdToolState, ptr %8, i32 0, i32 2
  %36 = load ptr, ptr %35, align 8
  %37 = load ptr, ptr %5, align 8
  %38 = icmp ne ptr %36, %37
  br i1 %38, label %44, label %39

39:                                               ; preds = %34
  %40 = getelementptr inbounds %class.CrowdToolState, ptr %8, i32 0, i32 3
  %41 = load ptr, ptr %40, align 8
  %42 = load ptr, ptr %6, align 8
  %43 = icmp ne ptr %41, %42
  br i1 %43, label %44, label %82

44:                                               ; preds = %39, %34
  %45 = load ptr, ptr %5, align 8
  %46 = getelementptr inbounds %class.CrowdToolState, ptr %8, i32 0, i32 2
  store ptr %45, ptr %46, align 8
  %47 = load ptr, ptr %6, align 8
  %48 = getelementptr inbounds %class.CrowdToolState, ptr %8, i32 0, i32 3
  store ptr %47, ptr %48, align 8
  %49 = load ptr, ptr %6, align 8
  %50 = getelementptr inbounds %class.CrowdToolState, ptr %8, i32 0, i32 1
  %51 = load ptr, ptr %50, align 8
  %52 = load ptr, ptr %51, align 8
  %53 = getelementptr inbounds ptr, ptr %52, i64 18
  %54 = load ptr, ptr %53, align 8
  %55 = call noundef float %54(ptr noundef nonnull align 8 dereferenceable(200) %51)
  %56 = load ptr, ptr %5, align 8
  %57 = call noundef zeroext i1 @_ZN7dtCrowd4initEifP9dtNavMesh(ptr noundef nonnull align 8 dereferenceable(5072) %49, i32 noundef 128, float noundef %55, ptr noundef %56)
  %58 = load ptr, ptr %6, align 8
  %59 = call noundef ptr @_ZN7dtCrowd17getEditableFilterEi(ptr noundef nonnull align 8 dereferenceable(5072) %58, i32 noundef 0)
  call void @_ZN13dtQueryFilter15setExcludeFlagsEt(ptr noundef nonnull align 4 dereferenceable(260) %59, i16 noundef zeroext 16)
  %60 = load ptr, ptr %6, align 8
  %61 = call noundef ptr @_ZNK7dtCrowd26getObstacleAvoidanceParamsEi(ptr noundef nonnull align 8 dereferenceable(5072) %60, i32 noundef 0)
  call void @llvm.memcpy.p0.p0.i64(ptr align 4 %7, ptr align 4 %61, i64 28, i1 false)
  %62 = getelementptr inbounds %struct.dtObstacleAvoidanceParams, ptr %7, i32 0, i32 0
  store float 5.000000e-01, ptr %62, align 4
  %63 = getelementptr inbounds %struct.dtObstacleAvoidanceParams, ptr %7, i32 0, i32 7
  store i8 5, ptr %63, align 1
  %64 = getelementptr inbounds %struct.dtObstacleAvoidanceParams, ptr %7, i32 0, i32 8
  store i8 2, ptr %64, align 2
  %65 = getelementptr inbounds %struct.dtObstacleAvoidanceParams, ptr %7, i32 0, i32 9
  store i8 1, ptr %65, align 1
  %66 = load ptr, ptr %6, align 8
  call void @_ZN7dtCrowd26setObstacleAvoidanceParamsEiPK25dtObstacleAvoidanceParams(ptr noundef nonnull align 8 dereferenceable(5072) %66, i32 noundef 0, ptr noundef %7)
  %67 = getelementptr inbounds %struct.dtObstacleAvoidanceParams, ptr %7, i32 0, i32 0
  store float 5.000000e-01, ptr %67, align 4
  %68 = getelementptr inbounds %struct.dtObstacleAvoidanceParams, ptr %7, i32 0, i32 7
  store i8 5, ptr %68, align 1
  %69 = getelementptr inbounds %struct.dtObstacleAvoidanceParams, ptr %7, i32 0, i32 8
  store i8 2, ptr %69, align 2
  %70 = getelementptr inbounds %struct.dtObstacleAvoidanceParams, ptr %7, i32 0, i32 9
  store i8 2, ptr %70, align 1
  %71 = load ptr, ptr %6, align 8
  call void @_ZN7dtCrowd26setObstacleAvoidanceParamsEiPK25dtObstacleAvoidanceParams(ptr noundef nonnull align 8 dereferenceable(5072) %71, i32 noundef 1, ptr noundef %7)
  %72 = getelementptr inbounds %struct.dtObstacleAvoidanceParams, ptr %7, i32 0, i32 0
  store float 5.000000e-01, ptr %72, align 4
  %73 = getelementptr inbounds %struct.dtObstacleAvoidanceParams, ptr %7, i32 0, i32 7
  store i8 7, ptr %73, align 1
  %74 = getelementptr inbounds %struct.dtObstacleAvoidanceParams, ptr %7, i32 0, i32 8
  store i8 2, ptr %74, align 2
  %75 = getelementptr inbounds %struct.dtObstacleAvoidanceParams, ptr %7, i32 0, i32 9
  store i8 3, ptr %75, align 1
  %76 = load ptr, ptr %6, align 8
  call void @_ZN7dtCrowd26setObstacleAvoidanceParamsEiPK25dtObstacleAvoidanceParams(ptr noundef nonnull align 8 dereferenceable(5072) %76, i32 noundef 2, ptr noundef %7)
  %77 = getelementptr inbounds %struct.dtObstacleAvoidanceParams, ptr %7, i32 0, i32 0
  store float 5.000000e-01, ptr %77, align 4
  %78 = getelementptr inbounds %struct.dtObstacleAvoidanceParams, ptr %7, i32 0, i32 7
  store i8 7, ptr %78, align 1
  %79 = getelementptr inbounds %struct.dtObstacleAvoidanceParams, ptr %7, i32 0, i32 8
  store i8 3, ptr %79, align 2
  %80 = getelementptr inbounds %struct.dtObstacleAvoidanceParams, ptr %7, i32 0, i32 9
  store i8 3, ptr %80, align 1
  %81 = load ptr, ptr %6, align 8
  call void @_ZN7dtCrowd26setObstacleAvoidanceParamsEiPK25dtObstacleAvoidanceParams(ptr noundef nonnull align 8 dereferenceable(5072) %81, i32 noundef 3, ptr noundef %7)
  br label %82

82:                                               ; preds = %44, %39, %31, %16
  ret void
}